; Function Attrs: mustprogress nounwind willreturn uwtable
define void @Wlc_ObjSetCo(ptr noundef captures(none) %0, ptr noundef %1, i32 noundef %2) local_unnamed_addr #6 {
  %4 = getelementptr inbounds nuw i8, ptr %0, i64 64
  %5 = getelementptr i8, ptr %0, i64 640
  %.val9 = load ptr, ptr %5, align 8
  %6 = ptrtoint ptr %1 to i64
  %7 = ptrtoint ptr %.val9 to i64
  %8 = sub i64 %6, %7
  %9 = sdiv exact i64 %8, 24
  %10 = trunc i64 %9 to i32
  %11 = getelementptr inbounds nuw i8, ptr %0, i64 68
  %12 = load i32, ptr %11, align 4
  %13 = load i32, ptr %4, align 8
  %14 = icmp eq i32 %12, %13
  br i1 %14, label %15, label %.Vec_IntGrow.exit10_crit_edge.i

.Vec_IntGrow.exit10_crit_edge.i:                  ; preds = %3
  %.phi.trans.insert.i = getelementptr inbounds nuw i8, ptr %0, i64 72
  %.pre.i = load ptr, ptr %.phi.trans.insert.i, align 8
  br label %Vec_IntPush.exit

15:                                               ; preds = %3
  %16 = icmp slt i32 %12, 16
  br i1 %16, label %17, label %25

17:                                               ; preds = %15
  %18 = getelementptr inbounds nuw i8, ptr %0, i64 72
  %19 = load ptr, ptr %18, align 8
  %.not9.i.i = icmp eq ptr %19, null
  br i1 %.not9.i.i, label %22, label %20

20:                                               ; preds = %17
  %21 = tail call dereferenceable_or_null(64) ptr @realloc(ptr noundef nonnull %19, i64 noundef 64) #27
  br label %Vec_IntGrow.exit.i

22:                                               ; preds = %17
  %23 = tail call noalias dereferenceable_or_null(64) ptr @malloc(i64 noundef 64) #26
  br label %Vec_IntGrow.exit.i

Vec_IntGrow.exit.i:                               ; preds = %22, %20
  %24 = phi ptr [ %21, %20 ], [ %23, %22 ]
  store ptr %24, ptr %18, align 8
  store i32 16, ptr %4, align 8
  br label %Vec_IntPush.exit

25:                                               ; preds = %15
  %26 = shl nuw nsw i32 %12, 1
  %27 = getelementptr inbounds nuw i8, ptr %0, i64 72
  %28 = load ptr, ptr %27, align 8
  %.not9.i9.i = icmp eq ptr %28, null
  %29 = zext nneg i32 %26 to i64
  %30 = shl nuw nsw i64 %29, 2
  br i1 %.not9.i9.i, label %33, label %31

31:                                               ; preds = %25
  %32 = tail call ptr @realloc(ptr noundef nonnull %28, i64 noundef %30) #27
  br label %35

33:                                               ; preds = %25
  %34 = tail call noalias ptr @malloc(i64 noundef %30) #26
  br label %35

35:                                               ; preds = %33, %31
  %36 = phi ptr [ %32, %31 ], [ %34, %33 ]
  store ptr %36, ptr %27, align 8
  store i32 %26, ptr %4, align 8
  br label %Vec_IntPush.exit

Vec_IntPush.exit:                                 ; preds = %.Vec_IntGrow.exit10_crit_edge.i, %Vec_IntGrow.exit.i, %35
  %37 = phi ptr [ %.pre.i, %.Vec_IntGrow.exit10_crit_edge.i ], [ %36, %35 ], [ %24, %Vec_IntGrow.exit.i ]
  %38 = load i32, ptr %11, align 4
  %39 = add nsw i32 %38, 1
  store i32 %39, ptr %11, align 4
  %40 = sext i32 %38 to i64
  %41 = getelementptr inbounds i32, ptr %37, i64 %40
  store i32 %10, ptr %41, align 4
  %.not = icmp eq i32 %2, 0
  br i1 %.not, label %42, label %.critedge

42:                                               ; preds = %Vec_IntPush.exit
  %43 = getelementptr inbounds nuw i8, ptr %0, i64 32
  %.val = load ptr, ptr %5, align 8
  %44 = ptrtoint ptr %.val to i64
  %45 = sub i64 %6, %44
  %46 = sdiv exact i64 %45, 24
  %47 = trunc i64 %46 to i32
  %48 = getelementptr inbounds nuw i8, ptr %0, i64 36
  %49 = load i32, ptr %48, align 4
  %50 = load i32, ptr %43, align 8
  %51 = icmp eq i32 %49, %50
  br i1 %51, label %52, label %.Vec_IntGrow.exit10_crit_edge.i10

.Vec_IntGrow.exit10_crit_edge.i10:                ; preds = %42
  %.phi.trans.insert.i11 = getelementptr inbounds nuw i8, ptr %0, i64 40
  %.pre.i12 = load ptr, ptr %.phi.trans.insert.i11, align 8
  br label %Vec_IntPush.exit16

52:                                               ; preds = %42
  %53 = icmp slt i32 %49, 16
  br i1 %53, label %54, label %62

54:                                               ; preds = %52
  %55 = getelementptr inbounds nuw i8, ptr %0, i64 40
  %56 = load ptr, ptr %55, align 8
  %.not9.i.i14 = icmp eq ptr %56, null
  br i1 %.not9.i.i14, label %59, label %57

57:                                               ; preds = %54
  %58 = tail call dereferenceable_or_null(64) ptr @realloc(ptr noundef nonnull %56, i64 noundef 64) #27
  br label %Vec_IntGrow.exit.i15

59:                                               ; preds = %54
  %60 = tail call noalias dereferenceable_or_null(64) ptr @malloc(i64 noundef 64) #26
  br label %Vec_IntGrow.exit.i15

Vec_IntGrow.exit.i15:                             ; preds = %59, %57
  %61 = phi ptr [ %58, %57 ], [ %60, %59 ]
  store ptr %61, ptr %55, align 8
  store i32 16, ptr %43, align 8
  br label %Vec_IntPush.exit16

62:                                               ; preds = %52
  %63 = shl nuw nsw i32 %49, 1
  %64 = getelementptr inbounds nuw i8, ptr %0, i64 40
  %65 = load ptr, ptr %64, align 8
  %.not9.i9.i13 = icmp eq ptr %65, null
  %66 = zext nneg i32 %63 to i64
  %67 = shl nuw nsw i64 %66, 2
  br i1 %.not9.i9.i13, label %70, label %68

68:                                               ; preds = %62
  %69 = tail call ptr @realloc(ptr noundef nonnull %65, i64 noundef %67) #27
  br label %72

70:                                               ; preds = %62
  %71 = tail call noalias ptr @malloc(i64 noundef %67) #26
  br label %72

72:                                               ; preds = %70, %68
  %73 = phi ptr [ %69, %68 ], [ %71, %70 ]
  store ptr %73, ptr %64, align 8
  store i32 %63, ptr %43, align 8
  br label %Vec_IntPush.exit16

Vec_IntPush.exit16:                               ; preds = %.Vec_IntGrow.exit10_crit_edge.i10, %Vec_IntGrow.exit.i15, %72
  %74 = phi ptr [ %.pre.i12, %.Vec_IntGrow.exit10_crit_edge.i10 ], [ %73, %72 ], [ %61, %Vec_IntGrow.exit.i15 ]
  %75 = load i32, ptr %48, align 4
  %76 = add nsw i32 %75, 1
  store i32 %76, ptr %48, align 4
  %77 = sext i32 %75 to i64
  %78 = getelementptr inbounds i32, ptr %74, i64 %77
  store i32 %47, ptr %78, align 4
  br label %.critedge

.critedge:                                        ; preds = %Vec_IntPush.exit, %Vec_IntPush.exit16
  %.sink17 = phi i16 [ 512, %Vec_IntPush.exit16 ], [ 1024, %Vec_IntPush.exit ]
  %79 = load i16, ptr %1, align 8
  %80 = or i16 %79, %.sink17
  store i16 %80, ptr %1, align 8
  ret void
}